ARM GAS  C:\Users\adrie\AppData\Local\Temp\ccmNJErw.s 			page 1


   1              		.cpu cortex-m4
   2              		.eabi_attribute 27, 1
   3              		.eabi_attribute 28, 1
   4              		.eabi_attribute 20, 1
   5              		.eabi_attribute 21, 1
   6              		.eabi_attribute 23, 3
   7              		.eabi_attribute 24, 1
   8              		.eabi_attribute 25, 1
   9              		.eabi_attribute 26, 1
  10              		.eabi_attribute 30, 2
  11              		.eabi_attribute 34, 1
  12              		.eabi_attribute 18, 4
  13              		.file	"main.c"
  14              		.text
  15              	.Ltext0:
  16              		.cfi_sections	.debug_frame
  17              		.section	.text.startup.main,"ax",%progbits
  18              		.align	1
  19              		.p2align 4,,15
  20              		.global	main
  21              		.syntax unified
  22              		.thumb
  23              		.thumb_func
  24              		.fpu fpv4-sp-d16
  25              		.type	main, %function
  26              	main:
  27              	.LFB260:
  28              		.file 1 "main.c"
  29              		.loc 1 15 0
  30              		.cfi_startproc
  31              		@ args = 0, pretend = 0, frame = 8
  32              		@ frame_needed = 0, uses_anonymous_args = 0
  33              		@ link register save eliminated.
  34 0000 024B     		ldr	r3, .L6
  35 0002 82B0     		sub	sp, sp, #8
  36              		.cfi_def_cfa_offset 8
  37              		.loc 1 15 0
  38 0004 1B68     		ldr	r3, [r3]
  39 0006 0193     		str	r3, [sp, #4]
  40              	.LVL0:
  41              	.L2:
  42 0008 FEE7     		b	.L2
  43              	.L7:
  44 000a 00BF     		.align	2
  45              	.L6:
  46 000c 00000000 		.word	__stack_chk_guard
  47              		.cfi_endproc
  48              	.LFE260:
  49              		.size	main, .-main
  50              		.section	.text.__stack_chk_fail,"ax",%progbits
  51              		.align	1
  52              		.p2align 4,,15
  53              		.global	__stack_chk_fail
  54              		.syntax unified
  55              		.thumb
  56              		.thumb_func
  57              		.fpu fpv4-sp-d16
ARM GAS  C:\Users\adrie\AppData\Local\Temp\ccmNJErw.s 			page 2


  58              		.type	__stack_chk_fail, %function
  59              	__stack_chk_fail:
  60              	.LFB261:
  61              		.loc 1 29 0
  62              		.cfi_startproc
  63              		@ args = 0, pretend = 0, frame = 8
  64              		@ frame_needed = 0, uses_anonymous_args = 0
  65 0000 00B5     		push	{lr}
  66              		.cfi_def_cfa_offset 4
  67              		.cfi_offset 14, -4
  68 0002 084B     		ldr	r3, .L13
  69 0004 83B0     		sub	sp, sp, #12
  70              		.cfi_def_cfa_offset 16
  71              		.loc 1 29 0
  72 0006 1A68     		ldr	r2, [r3]
  73 0008 0192     		str	r2, [sp, #4]
  74              		.loc 1 30 0
  75 000a 019A     		ldr	r2, [sp, #4]
  76 000c 1B68     		ldr	r3, [r3]
  77 000e 9A42     		cmp	r2, r3
  78 0010 05D1     		bne	.L12
  79 0012 0548     		ldr	r0, .L13+4
  80              		.loc 1 31 0
  81 0014 03B0     		add	sp, sp, #12
  82              		.cfi_remember_state
  83              		.cfi_def_cfa_offset 4
  84              		@ sp needed
  85 0016 5DF804EB 		ldr	lr, [sp], #4
  86              		.cfi_restore 14
  87              		.cfi_def_cfa_offset 0
  88              		.loc 1 30 0
  89 001a FFF7FEBF 		b	chSysHalt
  90              	.LVL1:
  91              	.L12:
  92              		.cfi_restore_state
  93 001e FFF7FEFF 		bl	__stack_chk_fail
  94              	.LVL2:
  95              	.L14:
  96 0022 00BF     		.align	2
  97              	.L13:
  98 0024 00000000 		.word	__stack_chk_guard
  99 0028 00000000 		.word	.LC0
 100              		.cfi_endproc
 101              	.LFE261:
 102              		.size	__stack_chk_fail, .-__stack_chk_fail
 103              		.global	__stack_chk_guard
 104              		.section	.data.__stack_chk_guard,"aw",%progbits
 105              		.align	2
 106              		.type	__stack_chk_guard, %object
 107              		.size	__stack_chk_guard, 4
 108              	__stack_chk_guard:
 109 0000 96E3DEE2 		.word	-488709226
 110              		.section	.rodata.__stack_chk_fail.str1.4,"aMS",%progbits,1
 111              		.align	2
 112              	.LC0:
 113 0000 53746163 		.ascii	"Stack smashing detected\000"
 113      6B20736D 
ARM GAS  C:\Users\adrie\AppData\Local\Temp\ccmNJErw.s 			page 3


 113      61736869 
 113      6E672064 
 113      65746563 
 114              		.text
 115              	.Letext0:
 116              		.file 2 "c:\\users\\adrie\\desktop\\epfl\\ba6\\robotique\\eclipse_e-puck2\\tools\\gcc-arm-none-eab
 117              		.file 3 "c:\\users\\adrie\\desktop\\epfl\\ba6\\robotique\\eclipse_e-puck2\\tools\\gcc-arm-none-eab
 118              		.file 4 "c:\\users\\adrie\\desktop\\epfl\\ba6\\robotique\\eclipse_e-puck2\\tools\\gcc-arm-none-eab
 119              		.file 5 "c:\\users\\adrie\\desktop\\epfl\\ba6\\robotique\\eclipse_e-puck2\\tools\\gcc-arm-none-eab
 120              		.file 6 "c:\\users\\adrie\\desktop\\epfl\\ba6\\robotique\\eclipse_e-puck2\\tools\\gcc-arm-none-eab
 121              		.file 7 "c:\\users\\adrie\\desktop\\epfl\\ba6\\robotique\\eclipse_e-puck2\\tools\\gcc-arm-none-eab
 122              		.file 8 "c:\\users\\adrie\\desktop\\epfl\\ba6\\robotique\\eclipse_e-puck2\\tools\\gcc-arm-none-eab
 123              		.file 9 "../lib/e-puck2_main-processor/ChibiOS//os/rt/ports/ARMCMx/compilers/GCC/chtypes.h"
 124              		.file 10 "../lib/e-puck2_main-processor/ChibiOS//os/rt/include/chsystypes.h"
 125              		.file 11 "../lib/e-puck2_main-processor/ChibiOS//os/rt/include/chschd.h"
 126              		.file 12 "../lib/e-puck2_main-processor/ChibiOS//os/ext/CMSIS/include/core_cm4.h"
 127              		.file 13 "../lib/e-puck2_main-processor/ChibiOS//os/ext/CMSIS/ST/system_stm32f4xx.h"
 128              		.file 14 "../lib/e-puck2_main-processor/ChibiOS//os/ext/CMSIS/ST/stm32f407xx.h"
 129              		.file 15 "../lib/e-puck2_main-processor/ChibiOS//os/rt/ports/ARMCMx/chcore.h"
 130              		.file 16 "../lib/e-puck2_main-processor/ChibiOS//os/rt/ports/ARMCMx/chcore_v7m.h"
 131              		.file 17 "../lib/e-puck2_main-processor/ChibiOS//os/rt/include/chdebug.h"
 132              		.file 18 "../lib/e-puck2_main-processor/ChibiOS//os/rt/include/chtm.h"
 133              		.file 19 "../lib/e-puck2_main-processor/ChibiOS//os/rt/include/chstats.h"
 134              		.file 20 "../lib/e-puck2_main-processor/ChibiOS//os/rt/include/chsem.h"
 135              		.file 21 "../lib/e-puck2_main-processor/ChibiOS//os/rt/include/chmtx.h"
 136              		.file 22 "../lib/e-puck2_main-processor/ChibiOS//os/rt/include/chregistry.h"
 137              		.file 23 "../lib/e-puck2_main-processor/ChibiOS//os/rt/include/chevents.h"
 138              		.file 24 "../lib/e-puck2_main-processor/ChibiOS//os/rt/include/chqueues.h"
 139              		.file 25 "../lib/e-puck2_main-processor/ChibiOS//os/hal/ports/STM32/STM32F4xx/stm32_dma.h"
 140              		.file 26 "../lib/e-puck2_main-processor/ChibiOS//os/hal/include/hal_ioblock.h"
 141              		.file 27 "../lib/e-puck2_main-processor/ChibiOS//os/hal/ports/STM32/LLD/GPIOv2/pal_lld.h"
 142              		.file 28 "../lib/e-puck2_main-processor/ChibiOS//os/hal/include/adc.h"
 143              		.file 29 "../lib/e-puck2_main-processor/ChibiOS//os/hal/ports/STM32/STM32F4xx/adc_lld.h"
 144              		.file 30 "../lib/e-puck2_main-processor/ChibiOS//os/hal/include/can.h"
 145              		.file 31 "../lib/e-puck2_main-processor/ChibiOS//os/hal/ports/STM32/LLD/can_lld.h"
 146              		.file 32 "../lib/e-puck2_main-processor/ChibiOS//os/hal/include/dac.h"
 147              		.file 33 "../lib/e-puck2_main-processor/ChibiOS//os/hal/ports/STM32/LLD/DACv1/dac_lld.h"
 148              		.file 34 "../lib/e-puck2_main-processor/ChibiOS//os/hal/include/ext.h"
 149              		.file 35 "../lib/e-puck2_main-processor/ChibiOS//os/hal/ports/STM32/LLD/ext_lld.h"
 150              		.file 36 "../lib/e-puck2_main-processor/ChibiOS//os/hal/include/gpt.h"
 151              		.file 37 "../lib/e-puck2_main-processor/ChibiOS//os/hal/ports/STM32/LLD/TIMv1/gpt_lld.h"
 152              		.file 38 "../lib/e-puck2_main-processor/ChibiOS//os/hal/ports/STM32/LLD/TIMv1/stm32_tim.h"
 153              		.file 39 "../lib/e-puck2_main-processor/ChibiOS//os/hal/include/i2c.h"
 154              		.file 40 "../lib/e-puck2_main-processor/ChibiOS//os/hal/ports/STM32/LLD/I2Cv1/i2c_lld.h"
 155              		.file 41 "../lib/e-puck2_main-processor/ChibiOS//os/hal/include/i2s.h"
 156              		.file 42 "../lib/e-puck2_main-processor/ChibiOS//os/hal/ports/STM32/LLD/SPIv1/i2s_lld.h"
 157              		.file 43 "../lib/e-puck2_main-processor/ChibiOS//os/hal/include/pwm.h"
 158              		.file 44 "../lib/e-puck2_main-processor/ChibiOS//os/hal/ports/STM32/LLD/TIMv1/pwm_lld.h"
 159              		.file 45 "../lib/e-puck2_main-processor/ChibiOS//os/hal/include/serial.h"
 160              		.file 46 "../lib/e-puck2_main-processor/ChibiOS//os/hal/ports/STM32/LLD/USARTv1/serial_lld.h"
 161              		.file 47 "../lib/e-puck2_main-processor/ChibiOS//os/hal/include/sdc.h"
 162              		.file 48 "../lib/e-puck2_main-processor/ChibiOS//os/hal/ports/STM32/LLD/sdc_lld.h"
 163              		.file 49 "../lib/e-puck2_main-processor/ChibiOS//os/hal/include/spi.h"
 164              		.file 50 "../lib/e-puck2_main-processor/ChibiOS//os/hal/ports/STM32/LLD/SPIv1/spi_lld.h"
 165              		.file 51 "../lib/e-puck2_main-processor/ChibiOS//os/hal/include/usb.h"
 166              		.file 52 "../lib/e-puck2_main-processor/ChibiOS//os/hal/ports/STM32/LLD/OTGv1/usb_lld.h"
 167              		.file 53 "../lib/e-puck2_main-processor/ChibiOS//os/hal/ports/STM32/LLD/OTGv1/stm32_otg.h"
ARM GAS  C:\Users\adrie\AppData\Local\Temp\ccmNJErw.s 			page 4


 168              		.file 54 "../lib/e-puck2_main-processor/ChibiOS//os/hal/include/serial_usb.h"
 169              		.file 55 "../lib/e-puck2_main-processor/src/usbcfg.h"
 170              		.file 56 "../lib/e-puck2_main-processor/ChibiOS_ext/os/hal/include/../ports/STM32/STM32F4xx/dcmi_l
 171              		.file 57 "c:\\users\\adrie\\desktop\\epfl\\ba6\\robotique\\eclipse_e-puck2\\tools\\gcc-arm-none-ea
 172              		.file 58 "../lib/e-puck2_main-processor/src/msgbus/messagebus.h"
 173              		.file 59 "../lib/e-puck2_main-processor/src/parameter/parameter.h"
 174              		.file 60 "./main.h"
 175              		.file 61 "../lib/e-puck2_main-processor/ChibiOS//os/rt/include/chsys.h"